; Function Attrs: mustprogress nofree norecurse nosync nounwind willreturn memory(argmem: read) uwtable
define noundef i64 @_ZN11duckdb_zstd31ZSTD_estimateCDictSize_advancedEmNS_26ZSTD_compressionParametersENS_21ZSTD_dictLoadMethod_eE(i64 noundef %0, ptr noundef readonly byval(%"struct.duckdb_zstd::ZSTD_compressionParameters") align 8 captures(none) %1, i32 noundef %2) local_unnamed_addr #10 {
_ZN11duckdb_zstdL30ZSTD_resolveRowMatchFinderModeENS_18ZSTD_paramSwitch_eEPKNS_26ZSTD_compressionParametersE.exit:
  %3 = getelementptr inbounds nuw i8, ptr %1, i64 24
  %4 = load i32, ptr %3, align 8, !tbaa !98
  %5 = add i32 %4, -6
  %6 = icmp ult i32 %5, -3
  %7 = load i32, ptr %1, align 8
  %8 = icmp ult i32 %7, 15
  %9 = getelementptr inbounds nuw i8, ptr %1, i64 4
  %10 = load i32, ptr %9, align 4, !tbaa !94
  %11 = zext nneg i32 %10 to i64
  %12 = shl i64 4, %11
  %13 = getelementptr inbounds nuw i8, ptr %1, i64 8
  %14 = load i32, ptr %13, align 8, !tbaa !95
  %15 = zext nneg i32 %14 to i64
  %16 = shl nuw i64 1, %15
  %17 = select i1 %6, i1 true, i1 %8
  %18 = add nuw i64 %16, 63
  %19 = and i64 %18, -64
  %20 = select i1 %17, i64 0, i64 %19
  %21 = shl i64 4, %15
  %22 = icmp eq i32 %2, 1
  %23 = add i64 %0, 7
  %24 = and i64 %23, -8
  %25 = add i64 %24, 14912
  %26 = select i1 %22, i64 14912, i64 %25
  %27 = add i64 %26, %12
  %28 = add i64 %27, %21
  %29 = add i64 %28, %20
  ret i64 %29
}